target datalayout = "e-m:e-p270:32:32-p271:32:32-p272:64:64-i64:64-i128:128-f80:128-n8:16:32:64-S128"
target triple = "x86_64-pc-linux-gnu"

%struct.PyVarObject = type { %struct._object, i64 }
%struct._object = type { %union.anon, ptr }
%union.anon = type { i64 }
%struct.PyCodeObject = type { %struct.PyVarObject, ptr, ptr, ptr, i32, i32, i32, i32, i32, i32, i32, i32, i32, i32, i32, i32, ptr, ptr, ptr, ptr, ptr, ptr, ptr, ptr, ptr, i64, ptr, i64, i32, ptr, [1 x i8] }
%struct._PyCoMonitoringData = type { %struct._Py_LocalMonitors, %struct._Py_LocalMonitors, ptr, [8 x i64], ptr, ptr, ptr, ptr }
%struct._Py_LocalMonitors = type { [11 x i8] }
%struct._PyCoLineInstrumentationData = type { i8, [1 x i8] }

; Function Attrs: nounwind uwtable
define internal i32 @compute_line(ptr noundef %0, i32 noundef %1) #0 {
  %3 = alloca i32, align 4
  %4 = alloca ptr, align 8
  %5 = alloca i32, align 4
  store ptr %0, ptr %4, align 8, !tbaa !4
  store i32 %1, ptr %5, align 4, !tbaa !9
  %6 = load i32, ptr %5, align 4, !tbaa !9
  %7 = icmp eq i32 %6, -2
  br i1 %7, label %8, label %9

8:                                                ; preds = %2
  store i32 -1, ptr %3, align 4
  br label %15

9:                                                ; preds = %2
  %10 = load ptr, ptr %4, align 8, !tbaa !4
  %11 = getelementptr inbounds nuw %struct.PyCodeObject, ptr %10, i32 0, i32 9
  %12 = load i32, ptr %11, align 4, !tbaa !64
  %13 = load i32, ptr %5, align 4, !tbaa !9
  %14 = add i32 %12, %13
  store i32 %14, ptr %3, align 4
  br label %15

15:                                               ; preds = %9, %8
  %16 = load i32, ptr %3, align 4
  ret i32 %16
}

; Function Attrs: inlinehint nounwind uwtable
define internal i32 @get_line_delta(ptr noundef %0, i32 noundef %1) #2 {
  %3 = alloca ptr, align 8
  %4 = alloca i32, align 4
  %5 = alloca ptr, align 8
  %6 = alloca i32, align 4
  %7 = alloca i32, align 4
  %8 = alloca i32, align 4
  store ptr %0, ptr %3, align 8, !tbaa !12
  store i32 %1, ptr %4, align 4, !tbaa !9
  call void @llvm.lifetime.start.p0(i64 8, ptr %5) #8
  %9 = load ptr, ptr %3, align 8, !tbaa !12
  %10 = getelementptr inbounds nuw %struct._PyCoLineInstrumentationData, ptr %9, i32 0, i32 1
  %11 = load i32, ptr %4, align 4, !tbaa !9
  %12 = load ptr, ptr %3, align 8, !tbaa !12
  %13 = getelementptr inbounds nuw %struct._PyCoLineInstrumentationData, ptr %12, i32 0, i32 0
  %14 = load i8, ptr %13, align 1, !tbaa !37
  %15 = zext i8 %14 to i32
  %16 = mul i32 %11, %15
  %17 = add i32 %16, 1
  %18 = sext i32 %17 to i64
  %19 = getelementptr [1 x i8], ptr %10, i64 0, i64 %18
  store ptr %19, ptr %5, align 8, !tbaa !56
  call void @llvm.lifetime.start.p0(i64 4, ptr %6) #8
  %20 = load ptr, ptr %5, align 8, !tbaa !56
  %21 = load i8, ptr %20, align 1, !tbaa !11
  %22 = zext i8 %21 to i32
  store i32 %22, ptr %6, align 4, !tbaa !9
  call void @llvm.lifetime.start.p0(i64 4, ptr %7) #8
  store i32 2, ptr %7, align 4, !tbaa !9
  br label %23

23:                                               ; preds = %44, %2
  %24 = load i32, ptr %7, align 4, !tbaa !9
  %25 = load ptr, ptr %3, align 8, !tbaa !12
  %26 = getelementptr inbounds nuw %struct._PyCoLineInstrumentationData, ptr %25, i32 0, i32 0
  %27 = load i8, ptr %26, align 1, !tbaa !37
  %28 = zext i8 %27 to i32
  %29 = icmp slt i32 %24, %28
  br i1 %29, label %31, label %30

30:                                               ; preds = %23
  call void @llvm.lifetime.end.p0(i64 4, ptr %7) #8
  br label %47

31:                                               ; preds = %23
  %32 = load ptr, ptr %5, align 8, !tbaa !56
  %33 = getelementptr i8, ptr %32, i32 1
  store ptr %33, ptr %5, align 8, !tbaa !56
  call void @llvm.lifetime.start.p0(i64 4, ptr %8) #8
  %34 = load i32, ptr %7, align 4, !tbaa !9
  %35 = sub i32 %34, 1
  %36 = mul i32 %35, 8
  store i32 %36, ptr %8, align 4, !tbaa !9
  %37 = load ptr, ptr %5, align 8, !tbaa !56
  %38 = load i8, ptr %37, align 1, !tbaa !11
  %39 = zext i8 %38 to i32
  %40 = load i32, ptr %8, align 4, !tbaa !9
  %41 = shl i32 %39, %40
  %42 = load i32, ptr %6, align 4, !tbaa !9
  %43 = or i32 %42, %41
  store i32 %43, ptr %6, align 4, !tbaa !9
  call void @llvm.lifetime.end.p0(i64 4, ptr %8) #8
  br label %44

44:                                               ; preds = %31
  %45 = load i32, ptr %7, align 4, !tbaa !9
  %46 = add i32 %45, 1
  store i32 %46, ptr %7, align 4, !tbaa !9
  br label %23, !llvm.loop !63

47:                                               ; preds = %30
  %48 = load i32, ptr %6, align 4, !tbaa !9
  %49 = add i32 %48, -2
  call void @llvm.lifetime.end.p0(i64 4, ptr %6) #8
  call void @llvm.lifetime.end.p0(i64 8, ptr %5) #8
  ret i32 %49
}

; Function Attrs: nounwind uwtable
define hidden i32 @_Py_Instrumentation_GetLine(ptr noundef %0, i32 noundef %1) #0 {
  %3 = alloca ptr, align 8
  %4 = alloca i32, align 4
  %5 = alloca ptr, align 8
  %6 = alloca ptr, align 8
  %7 = alloca i32, align 4
  %8 = alloca i32, align 4
  store ptr %0, ptr %3, align 8, !tbaa !4
  store i32 %1, ptr %4, align 4, !tbaa !9
  call void @llvm.lifetime.start.p0(i64 8, ptr %5) #8
  %9 = load ptr, ptr %3, align 8, !tbaa !4
  %10 = getelementptr inbounds nuw %struct.PyCodeObject, ptr %9, i32 0, i32 26
  %11 = load ptr, ptr %10, align 8, !tbaa !31
  store ptr %11, ptr %5, align 8, !tbaa !12
  call void @llvm.lifetime.start.p0(i64 8, ptr %6) #8
  %12 = load ptr, ptr %5, align 8, !tbaa !12
  %13 = getelementptr inbounds nuw %struct._PyCoMonitoringData, ptr %12, i32 0, i32 4
  %14 = load ptr, ptr %13, align 8, !tbaa !32
  store ptr %14, ptr %6, align 8, !tbaa !12
  call void @llvm.lifetime.start.p0(i64 4, ptr %7) #8
  %15 = load ptr, ptr %6, align 8, !tbaa !12
  %16 = load i32, ptr %4, align 4, !tbaa !9
  %17 = call i32 @get_line_delta(ptr noundef %15, i32 noundef %16)
  store i32 %17, ptr %7, align 4, !tbaa !9
  call void @llvm.lifetime.start.p0(i64 4, ptr %8) #8
  %18 = load ptr, ptr %3, align 8, !tbaa !4
  %19 = load i32, ptr %7, align 4, !tbaa !9
  %20 = call i32 @compute_line(ptr noundef %18, i32 noundef %19)
  store i32 %20, ptr %8, align 4, !tbaa !9
  %21 = load i32, ptr %8, align 4, !tbaa !9
  call void @llvm.lifetime.end.p0(i64 4, ptr %8) #8
  call void @llvm.lifetime.end.p0(i64 4, ptr %7) #8
  call void @llvm.lifetime.end.p0(i64 8, ptr %6) #8
  call void @llvm.lifetime.end.p0(i64 8, ptr %5) #8
  ret i32 %21
}