; Function Attrs: nofree norecurse nosync nounwind memory(read, inaccessiblemem: none) uwtable
define hidden i32 @_Py_Instrumentation_GetLine(ptr noundef readonly captures(none) %0, i32 noundef %1) local_unnamed_addr #5 {
  %3 = getelementptr inbounds nuw i8, ptr %0, i64 176
  %4 = load ptr, ptr %3, align 8, !tbaa !26
  %5 = getelementptr inbounds nuw i8, ptr %4, i64 96
  %6 = load ptr, ptr %5, align 8, !tbaa !27
  %7 = getelementptr inbounds nuw i8, ptr %6, i64 1
  %8 = load i8, ptr %6, align 1, !tbaa !31
  %9 = zext i8 %8 to i32
  %10 = mul i32 %1, %9
  %11 = add i32 %10, 1
  %12 = sext i32 %11 to i64
  %13 = getelementptr [1 x i8], ptr %7, i64 0, i64 %12
  %14 = load i8, ptr %13, align 1, !tbaa !33
  %15 = zext i8 %14 to i32
  %16 = icmp ugt i8 %8, 2
  br i1 %16, label %.lr.ph.i, label %get_line_delta.exit

.lr.ph.i:                                         ; preds = %2, %.lr.ph.i
  %.016.i = phi ptr [ %17, %.lr.ph.i ], [ %13, %2 ]
  %.01215.i = phi i32 [ %24, %.lr.ph.i ], [ 2, %2 ]
  %.01314.i = phi i32 [ %23, %.lr.ph.i ], [ %15, %2 ]
  %17 = getelementptr i8, ptr %.016.i, i64 1
  %18 = shl i32 %.01215.i, 3
  %19 = add nsw i32 %18, -8
  %20 = load i8, ptr %17, align 1, !tbaa !33
  %21 = zext i8 %20 to i32
  %22 = shl i32 %21, %19
  %23 = or i32 %22, %.01314.i
  %24 = add nuw nsw i32 %.01215.i, 1
  %exitcond.not.i = icmp eq i32 %24, %9
  br i1 %exitcond.not.i, label %get_line_delta.exit, label %.lr.ph.i, !llvm.loop !54

get_line_delta.exit:                              ; preds = %.lr.ph.i, %2
  %.013.lcssa.i = phi i32 [ %15, %2 ], [ %23, %.lr.ph.i ]
  %25 = icmp eq i32 %.013.lcssa.i, 0
  br i1 %25, label %compute_line.exit, label %26

26:                                               ; preds = %get_line_delta.exit
  %27 = add i32 %.013.lcssa.i, -2
  %28 = getelementptr inbounds nuw i8, ptr %0, i64 68
  %29 = load i32, ptr %28, align 4, !tbaa !56
  %30 = add i32 %27, %29
  br label %compute_line.exit

compute_line.exit:                                ; preds = %get_line_delta.exit, %26
  %.0.i = phi i32 [ %30, %26 ], [ -1, %get_line_delta.exit ]
  ret i32 %.0.i
}